target datalayout = "e-m:e-p270:32:32-p271:32:32-p272:64:64-i64:64-i128:128-f80:128-n8:16:32:64-S128"
target triple = "x86_64-pc-linux-gnu"

%struct.printQueryOpt = type { %struct.printTableOpt, ptr, ptr, ptr, i8, ptr, i32 }
%struct.printTableOpt = type { i32, i16, i32, i32, i16, i16, i32, i8, i8, i8, i8, i64, ptr, %struct.separator, %struct.separator, [2 x i8], i8, ptr, i32, i32, i32, i32, i32, i32 }
%struct.separator = type { ptr, i8 }

; Function Attrs: nounwind uwtable
define dso_local ptr @savePsetInfo(ptr noundef %0) #0 {
  %2 = alloca ptr, align 8
  %3 = alloca ptr, align 8
  store ptr %0, ptr %2, align 8
  call void @llvm.lifetime.start.p0(i64 8, ptr %3) #10
  %4 = call ptr @pg_malloc(i64 noundef 168)
  store ptr %4, ptr %3, align 8
  %5 = load ptr, ptr %3, align 8
  %6 = load ptr, ptr %2, align 8
  call void @llvm.memcpy.p0.p0.i64(ptr align 8 %5, ptr align 8 %6, i64 168, i1 false)
  %7 = load ptr, ptr %2, align 8
  %8 = getelementptr inbounds nuw %struct.printQueryOpt, ptr %7, i32 0, i32 0
  %9 = getelementptr inbounds nuw %struct.printTableOpt, ptr %8, i32 0, i32 13
  %10 = getelementptr inbounds nuw %struct.separator, ptr %9, i32 0, i32 0
  %11 = load ptr, ptr %10, align 8
  %12 = icmp ne ptr %11, null
  br i1 %12, label %13, label %24

13:                                               ; preds = %1
  %14 = load ptr, ptr %2, align 8
  %15 = getelementptr inbounds nuw %struct.printQueryOpt, ptr %14, i32 0, i32 0
  %16 = getelementptr inbounds nuw %struct.printTableOpt, ptr %15, i32 0, i32 13
  %17 = getelementptr inbounds nuw %struct.separator, ptr %16, i32 0, i32 0
  %18 = load ptr, ptr %17, align 8
  %19 = call ptr @pg_strdup(ptr noundef %18)
  %20 = load ptr, ptr %3, align 8
  %21 = getelementptr inbounds nuw %struct.printQueryOpt, ptr %20, i32 0, i32 0
  %22 = getelementptr inbounds nuw %struct.printTableOpt, ptr %21, i32 0, i32 13
  %23 = getelementptr inbounds nuw %struct.separator, ptr %22, i32 0, i32 0
  store ptr %19, ptr %23, align 8
  br label %24

24:                                               ; preds = %13, %1
  %25 = load ptr, ptr %2, align 8
  %26 = getelementptr inbounds nuw %struct.printQueryOpt, ptr %25, i32 0, i32 0
  %27 = getelementptr inbounds nuw %struct.printTableOpt, ptr %26, i32 0, i32 14
  %28 = getelementptr inbounds nuw %struct.separator, ptr %27, i32 0, i32 0
  %29 = load ptr, ptr %28, align 8
  %30 = icmp ne ptr %29, null
  br i1 %30, label %31, label %42

31:                                               ; preds = %24
  %32 = load ptr, ptr %2, align 8
  %33 = getelementptr inbounds nuw %struct.printQueryOpt, ptr %32, i32 0, i32 0
  %34 = getelementptr inbounds nuw %struct.printTableOpt, ptr %33, i32 0, i32 14
  %35 = getelementptr inbounds nuw %struct.separator, ptr %34, i32 0, i32 0
  %36 = load ptr, ptr %35, align 8
  %37 = call ptr @pg_strdup(ptr noundef %36)
  %38 = load ptr, ptr %3, align 8
  %39 = getelementptr inbounds nuw %struct.printQueryOpt, ptr %38, i32 0, i32 0
  %40 = getelementptr inbounds nuw %struct.printTableOpt, ptr %39, i32 0, i32 14
  %41 = getelementptr inbounds nuw %struct.separator, ptr %40, i32 0, i32 0
  store ptr %37, ptr %41, align 8
  br label %42

42:                                               ; preds = %31, %24
  %43 = load ptr, ptr %2, align 8
  %44 = getelementptr inbounds nuw %struct.printQueryOpt, ptr %43, i32 0, i32 0
  %45 = getelementptr inbounds nuw %struct.printTableOpt, ptr %44, i32 0, i32 17
  %46 = load ptr, ptr %45, align 8
  %47 = icmp ne ptr %46, null
  br i1 %47, label %48, label %57

48:                                               ; preds = %42
  %49 = load ptr, ptr %2, align 8
  %50 = getelementptr inbounds nuw %struct.printQueryOpt, ptr %49, i32 0, i32 0
  %51 = getelementptr inbounds nuw %struct.printTableOpt, ptr %50, i32 0, i32 17
  %52 = load ptr, ptr %51, align 8
  %53 = call ptr @pg_strdup(ptr noundef %52)
  %54 = load ptr, ptr %3, align 8
  %55 = getelementptr inbounds nuw %struct.printQueryOpt, ptr %54, i32 0, i32 0
  %56 = getelementptr inbounds nuw %struct.printTableOpt, ptr %55, i32 0, i32 17
  store ptr %53, ptr %56, align 8
  br label %57

57:                                               ; preds = %48, %42
  %58 = load ptr, ptr %2, align 8
  %59 = getelementptr inbounds nuw %struct.printQueryOpt, ptr %58, i32 0, i32 1
  %60 = load ptr, ptr %59, align 8
  %61 = icmp ne ptr %60, null
  br i1 %61, label %62, label %69

62:                                               ; preds = %57
  %63 = load ptr, ptr %2, align 8
  %64 = getelementptr inbounds nuw %struct.printQueryOpt, ptr %63, i32 0, i32 1
  %65 = load ptr, ptr %64, align 8
  %66 = call ptr @pg_strdup(ptr noundef %65)
  %67 = load ptr, ptr %3, align 8
  %68 = getelementptr inbounds nuw %struct.printQueryOpt, ptr %67, i32 0, i32 1
  store ptr %66, ptr %68, align 8
  br label %69

69:                                               ; preds = %62, %57
  %70 = load ptr, ptr %2, align 8
  %71 = getelementptr inbounds nuw %struct.printQueryOpt, ptr %70, i32 0, i32 2
  %72 = load ptr, ptr %71, align 8
  %73 = icmp ne ptr %72, null
  br i1 %73, label %74, label %81

74:                                               ; preds = %69
  %75 = load ptr, ptr %2, align 8
  %76 = getelementptr inbounds nuw %struct.printQueryOpt, ptr %75, i32 0, i32 2
  %77 = load ptr, ptr %76, align 8
  %78 = call ptr @pg_strdup(ptr noundef %77)
  %79 = load ptr, ptr %3, align 8
  %80 = getelementptr inbounds nuw %struct.printQueryOpt, ptr %79, i32 0, i32 2
  store ptr %78, ptr %80, align 8
  br label %81

81:                                               ; preds = %74, %69
  %82 = load ptr, ptr %3, align 8
  call void @llvm.lifetime.end.p0(i64 8, ptr %3) #10
  ret ptr %82
}