; Function Attrs: nounwind uwtable
define dso_local noundef ptr @savePsetInfo(ptr noundef readonly captures(none) %0) local_unnamed_addr #0 {
  %2 = tail call ptr @pg_malloc(i64 noundef 168) #16
  tail call void @llvm.memcpy.p0.p0.i64(ptr noundef nonnull align 8 dereferenceable(168) %2, ptr noundef nonnull align 8 dereferenceable(168) %0, i64 168, i1 false)
  %3 = getelementptr inbounds nuw i8, ptr %0, i64 48
  %4 = load ptr, ptr %3, align 8
  %.not = icmp eq ptr %4, null
  br i1 %.not, label %8, label %5

5:                                                ; preds = %1
  %6 = tail call ptr @pg_strdup(ptr noundef nonnull %4) #16
  %7 = getelementptr inbounds nuw i8, ptr %2, i64 48
  store ptr %6, ptr %7, align 8
  br label %8

8:                                                ; preds = %5, %1
  %9 = getelementptr inbounds nuw i8, ptr %0, i64 64
  %10 = load ptr, ptr %9, align 8
  %.not22 = icmp eq ptr %10, null
  br i1 %.not22, label %14, label %11

11:                                               ; preds = %8
  %12 = tail call ptr @pg_strdup(ptr noundef nonnull %10) #16
  %13 = getelementptr inbounds nuw i8, ptr %2, i64 64
  store ptr %12, ptr %13, align 8
  br label %14

14:                                               ; preds = %11, %8
  %15 = getelementptr inbounds nuw i8, ptr %0, i64 88
  %16 = load ptr, ptr %15, align 8
  %.not23 = icmp eq ptr %16, null
  br i1 %.not23, label %20, label %17

17:                                               ; preds = %14
  %18 = tail call ptr @pg_strdup(ptr noundef nonnull %16) #16
  %19 = getelementptr inbounds nuw i8, ptr %2, i64 88
  store ptr %18, ptr %19, align 8
  br label %20

20:                                               ; preds = %17, %14
  %21 = getelementptr inbounds nuw i8, ptr %0, i64 120
  %22 = load ptr, ptr %21, align 8
  %.not24 = icmp eq ptr %22, null
  br i1 %.not24, label %26, label %23

23:                                               ; preds = %20
  %24 = tail call ptr @pg_strdup(ptr noundef nonnull %22) #16
  %25 = getelementptr inbounds nuw i8, ptr %2, i64 120
  store ptr %24, ptr %25, align 8
  br label %26

26:                                               ; preds = %23, %20
  %27 = getelementptr inbounds nuw i8, ptr %0, i64 128
  %28 = load ptr, ptr %27, align 8
  %.not25 = icmp eq ptr %28, null
  br i1 %.not25, label %32, label %29

29:                                               ; preds = %26
  %30 = tail call ptr @pg_strdup(ptr noundef nonnull %28) #16
  %31 = getelementptr inbounds nuw i8, ptr %2, i64 128
  store ptr %30, ptr %31, align 8
  br label %32

32:                                               ; preds = %29, %26
  ret ptr %2
}